Certificate:
    Data:
        Version: 3 (0x2)
        Serial Number: 4919 (0x1337)
        Signature Algorithm: sha256WithRSAEncryption
        Issuer: C=WD, ST=Earth, L=Global, O=KongTest, CN=KongCATest
        Validity
            Not Before: Mar 20 14:14:23 2024 GMT
            Not After : Mar 30 14:14:23 2025 GMT
        Subject: C=WD, ST=Earth, O=KongTest, OU=Test, CN=test.com/emailAddress=test@test.com
        Subject Public Key Info:
            Public Key Algorithm: rsaEncryption
                Public-Key: (4096 bit)
                Modulus:
                    00:b7:93:1f:df:2f:bc:87:68:cd:06:c3:83:19:70:
                    07:2e:c2:4c:bb:37:94:36:45:a2:8f:71:75:14:ef:
                    db:a0:0c:fe:fb:d8:4e:62:4b:3e:4b:ee:90:8f:8f:
                    e5:5a:1a:03:78:64:1b:84:9e:d8:bb:df:05:9c:22:
                    39:8a:07:b5:95:ab:38:3a:2b:93:55:cc:4a:c6:ec:
                    0e:30:59:54:d3:6a:d6:68:30:11:14:f2:c7:74:a6:
                    43:ec:a8:f4:4a:de:19:5b:1e:cd:4e:89:fe:b3:b1:
                    16:89:f4:a9:5b:25:98:c4:6a:fc:94:92:a1:c9:8e:
                    9c:85:32:56:ba:51:b1:e8:56:1b:10:8f:fc:75:7a:
                    7b:97:bd:62:7f:b7:ab:4a:d3:ed:45:85:c8:58:ca:
                    ba:15:78:d0:06:77:79:29:14:93:14:70:a1:4b:d2:
                    41:37:b7:f2:c3:a3:f8:db:58:89:4d:56:b4:09:58:
                    15:21:43:68:5c:5f:3b:d5:27:43:06:39:a5:b9:11:
                    e8:6f:d1:29:66:72:33:1b:03:90:57:f5:39:74:71:
                    c8:2a:7f:17:d4:88:db:74:1c:85:fa:39:da:0b:a5:
                    06:0e:df:d7:ef:70:77:1b:5b:9b:22:65:94:fa:0b:
                    9d:c2:a6:a8:b3:b6:91:8b:d5:6a:fa:ed:29:bb:2c:
                    93:33:d1:1d:d0:b6:33:8a:58:7c:26:2e:47:11:de:
                    9b:8f:cb:ae:80:25:d2:3b:9e:4f:b3:6e:cd:fb:af:
                    8c:61:89:5e:8b:e8:81:5a:0b:37:b9:84:8d:d1:cb:
                    6d:e9:5a:ba:ae:c6:29:29:35:1a:88:3a:d3:3c:eb:
                    6c:f7:7c:8c:84:97:ba:62:a5:5d:1f:6c:5c:19:2f:
                    92:31:19:43:e9:2e:f9:75:cc:cf:0a:a8:b0:18:57:
                    91:bc:b0:77:42:c2:3d:6f:3b:2e:1b:5c:5f:8d:41:
                    7d:ec:5c:40:45:25:bd:7f:14:e6:48:d6:de:b7:73:
                    79:e1:3b:96:1d:b5:2e:83:85:c2:91:90:d5:ee:b9:
                    f3:8b:e4:68:a6:8d:a3:c2:a4:04:38:d4:20:15:ae:
                    cf:c8:15:ee:64:17:ac:32:c4:4c:08:dc:e7:a1:b0:
                    c5:88:40:53:7b:08:a8:9c:19:ff:c8:b5:88:11:05:
                    05:69:bf:93:fa:8e:f2:7c:96:0b:59:43:39:2e:72:
                    72:dd:08:c9:01:65:11:c0:43:10:49:98:9a:7e:af:
                    01:27:14:fb:3d:de:51:73:cb:59:ea:bc:1c:67:f8:
                    e1:5d:37:1a:d6:87:2d:6c:0b:5b:3f:43:c6:f4:6a:
                    ad:9a:d9:32:9d:88:68:92:c9:60:62:4d:ff:c5:12:
                    01:35:0b
                Exponent: 65537 (0x10001)
        X509v3 extensions:
            X509v3 Basic Constraints: 
                CA:FALSE
            Netscape Cert Type: 
                SSL Client, S/MIME
            Netscape Comment: 
                OpenSSL Generated Client Certificate
            X509v3 Subject Key Identifier: 
                64:63:E4:A6:F5:1A:6A:FB:D6:58:C7:E3:2D:29:E2:1A:1A:86:66:3E
            X509v3 Authority Key Identifier: 
                17:51:03:7C:FA:F0:A7:BE:D9:2B:2E:47:ED:A4:DB:CD:67:00:CA:6B
            X509v3 Key Usage: critical
                Digital Signature, Non Repudiation, Key Encipherment
            X509v3 Extended Key Usage: 
                TLS Web Client Authentication, E-mail Protection
            X509v3 Subject Alternative Name: 
                email:demo@apim.eu, email:demo@example.com
    Signature Algorithm: sha256WithRSAEncryption
    Signature Value:
        41:7b:37:98:95:0e:de:20:95:f8:b1:9d:3e:21:35:c7:b1:05:
        84:4a:e3:47:00:13:83:2c:bc:ae:fc:d6:b3:ce:70:bc:43:6b:
        89:b8:04:c7:fe:9d:98:cc:5a:c1:90:d9:41:8b:7f:5a:60:73:
        6b:c6:af:8d:db:f9:40:33:a7:27:85:37:64:c6:a5:98:fc:d9:
        09:0f:82:5e:4e:99:f9:c1:c4:bc:2a:16:59:60:15:0f:9c:3c:
        23:47:c2:3b:35:53:af:38:5f:6a:6f:1b:78:5b:e3:d3:26:79:
        5d:4a:47:76:a2:39:2f:04:a3:bf:fd:dc:5f:ff:ee:11:61:47:
        3b:4d:d7:45:12:f6:8e:db:6e:61:2d:1f:b7:43:7c:24:4d:22:
        2b:0d:dc:71:2a:d0:7b:48:8f:e4:34:8a:05:81:f4:3b:bc:30:
        f8:0a:c3:6d:d8:24:07:80:6f:29:f3:9d:dd:07:ce:5a:57:6b:
        90:ff:4f:2b:30:6c:88:04:d6:bd:84:d5:84:9e:bf:12:82:0a:
        de:24:92:66:34:de:b4:9a:ff:f3:60:60:8b:6d:8f:c8:27:8e:
        7d:a1:d0:7a:35:f1:a3:da:8b:17:49:94:16:fe:2a:eb:c2:f7:
        01:2a:e7:53:87:2a:56:ff:02:3a:3f:31:2f:55:9e:5c:ba:b9:
        bf:31:5a:32:be:f4:cf:12:b2:73:7c:07:d8:98:51:8b:c7:72:
        05:81:36:79:26:d2:21:e4:18:41:b1:76:27:5e:8b:43:5e:9c:
        2f:49:cf:3f:ae:19:73:92:a4:0e:76:62:6f:1e:90:ee:27:26:
        ab:a7:1f:58:13:45:d4:2b:d3:53:49:ee:1c:64:a0:b0:e2:15:
        8e:ee:e6:95:91:84:c8:06:ac:e3:aa:e4:6f:87:ed:a4:e4:1f:
        0d:80:94:51:c8:b9:fc:eb:a8:21:65:3f:24:ae:64:17:f9:84:
        f7:b6:c7:79:09:8e:28:e3:15:f1:a5:01:16:2b:1b:e9:76:bd:
        29:c6:f2:c7:ed:aa:4e:6d:d9:88:27:11:33:89:84:2d:0a:66:
        26:d8:48:d9:87:d4:57:c8:5a:26:87:80:85:38:ea:49:fc:18:
        e2:9e:26:ff:23:f8:26:bb:e4:75:46:29:24:e9:be:64:44:70:
        f3:e8:42:e8:2e:85:76:dc:ff:3a:45:81:80:cb:17:da:7e:4a:
        b0:af:0a:95:79:aa:c9:43:17:9f:58:56:f5:fa:11:8d:65:cd:
        0e:bb:40:b3:25:f8:aa:48:a9:97:3b:f2:82:15:ba:10:b7:75:
        18:22:b5:6d:e4:62:08:1d:0d:a7:97:06:2c:54:08:a9:45:c9:
        7a:64:ff:e7:0b:3f:a5:b3
-----BEGIN CERTIFICATE-----
MIIGMzCCBBugAwIBAgICEzcwDQYJKoZIhvcNAQELBQAwVjELMAkGA1UEBhMCV0Qx
DjAMBgNVBAgMBUVhcnRoMQ8wDQYDVQQHDAZHbG9iYWwxETAPBgNVBAoMCEtvbmdU
ZXN0MRMwEQYDVQQDDApLb25nQ0FUZXN0MB4XDTI0MDMyMDE0MTQyM1oXDTI1MDMz
MDE0MTQyM1owcDELMAkGA1UEBhMCV0QxDjAMBgNVBAgMBUVhcnRoMREwDwYDVQQK
DAhLb25nVGVzdDENMAsGA1UECwwEVGVzdDERMA8GA1UEAwwIdGVzdC5jb20xHDAa
BgkqhkiG9w0BCQEWDXRlc3RAdGVzdC5jb20wggIiMA0GCSqGSIb3DQEBAQUAA4IC
DwAwggIKAoICAQC3kx/fL7yHaM0Gw4MZcAcuwky7N5Q2RaKPcXUU79ugDP772E5i
Sz5L7pCPj+VaGgN4ZBuEnti73wWcIjmKB7WVqzg6K5NVzErG7A4wWVTTatZoMBEU
8sd0pkPsqPRK3hlbHs1Oif6zsRaJ9KlbJZjEavyUkqHJjpyFMla6UbHoVhsQj/x1
enuXvWJ/t6tK0+1FhchYyroVeNAGd3kpFJMUcKFL0kE3t/LDo/jbWIlNVrQJWBUh
Q2hcXzvVJ0MGOaW5Eehv0SlmcjMbA5BX9Tl0ccgqfxfUiNt0HIX6OdoLpQYO39fv
cHcbW5siZZT6C53CpqiztpGL1Wr67Sm7LJMz0R3QtjOKWHwmLkcR3puPy66AJdI7
nk+zbs37r4xhiV6L6IFaCze5hI3Ry23pWrquxikpNRqIOtM862z3fIyEl7pipV0f
bFwZL5IxGUPpLvl1zM8KqLAYV5G8sHdCwj1vOy4bXF+NQX3sXEBFJb1/FOZI1t63
c3nhO5YdtS6DhcKRkNXuufOL5GimjaPCpAQ41CAVrs/IFe5kF6wyxEwI3OehsMWI
QFN7CKicGf/ItYgRBQVpv5P6jvJ8lgtZQzkucnLdCMkBZRHAQxBJmJp+rwEnFPs9
3lFzy1nqvBxn+OFdNxrWhy1sC1s/Q8b0aq2a2TKdiGiSyWBiTf/FEgE1CwIDAQAB
o4HwMIHtMAkGA1UdEwQCMAAwEQYJYIZIAYb4QgEBBAQDAgWgMDMGCWCGSAGG+EIB
DQQmFiRPcGVuU1NMIEdlbmVyYXRlZCBDbGllbnQgQ2VydGlmaWNhdGUwHQYDVR0O
BBYEFGRj5Kb1Gmr71ljH4y0p4hoahmY+MB8GA1UdIwQYMBaAFBdRA3z68Ke+2Ssu
R+2k281nAMprMA4GA1UdDwEB/wQEAwIF4DAdBgNVHSUEFjAUBggrBgEFBQcDAgYI
KwYBBQUHAwQwKQYDVR0RBCIwIIEMZGVtb0BhcGltLmV1gRBkZW1vQGV4YW1wbGUu
Y29tMA0GCSqGSIb3DQEBCwUAA4ICAQBBezeYlQ7eIJX4sZ0+ITXHsQWESuNHABOD
LLyu/NazznC8Q2uJuATH/p2YzFrBkNlBi39aYHNrxq+N2/lAM6cnhTdkxqWY/NkJ
D4JeTpn5wcS8KhZZYBUPnDwjR8I7NVOvOF9qbxt4W+PTJnldSkd2ojkvBKO//dxf
/+4RYUc7TddFEvaO225hLR+3Q3wkTSIrDdxxKtB7SI/kNIoFgfQ7vDD4CsNt2CQH
gG8p853dB85aV2uQ/08rMGyIBNa9hNWEnr8SggreJJJmNN60mv/zYGCLbY/IJ459
odB6NfGj2osXSZQW/irrwvcBKudThypW/wI6PzEvVZ5curm/MVoyvvTPErJzfAfY
mFGLx3IFgTZ5JtIh5BhBsXYnXotDXpwvSc8/rhlzkqQOdmJvHpDuJyarpx9YE0XU
K9NTSe4cZKCw4hWO7uaVkYTIBqzjquRvh+2k5B8NgJRRyLn866ghZT8krmQX+YT3
tsd5CY4o4xXxpQEWKxvpdr0pxvLH7apObdmIJxEziYQtCmYm2EjZh9RXyFomh4CF
OOpJ/Bjinib/I/gmu+R1Rikk6b5kRHDz6ELoLoV23P86RYGAyxfafkqwrwqVearJ
QxefWFb1+hGNZc0Ou0CzJfiqSKmXO/KCFboQt3UYIrVt5GIIHQ2nlwYsVAipRcl6
ZP/nCz+lsw==
-----END CERTIFICATE-----
